target datalayout = "e-m:e-p270:32:32-p271:32:32-p272:64:64-i64:64-i128:128-f80:128-n8:16:32:64-S128"
target triple = "x86_64-pc-linux-gnu"

%struct.AVCodecContext = type { ptr, i32, i32, ptr, i32, i32, ptr, ptr, ptr, i64, i32, i32, ptr, i32, %struct.AVRational, %struct.AVRational, %struct.AVRational, i32, i32, i32, i32, i32, %struct.AVRational, i32, i32, i32, i32, i32, i32, i32, i32, i32, i32, i32, ptr, ptr, i32, float, float, float, float, float, float, float, float, float, i32, i32, i32, i32, i32, i32, i32, i32, i32, i32, i32, i32, ptr, ptr, ptr, i32, i32, i32, i32, i32, i32, i32, i32, i32, i32, %struct.AVChannelLayout, i32, i32, i32, i32, i32, i32, i32, i32, ptr, i32, i32, i32, float, float, i32, i32, i32, i32, i32, ptr, i64, i64, float, float, i32, i32, ptr, ptr, i32, i32, i32, i32, i32, ptr, ptr, ptr, ptr, i32, i32, [8 x i64], i32, i32, i32, i32, i32, i32, i32, ptr, ptr, i32, i32, i32, i32, i32, i32, i32, i32, i32, i32, ptr, ptr, i32, i32, ptr, ptr, ptr, ptr, i32, i32, i64, i32, i32, i64, ptr, i64, ptr, i32, ptr, i32 }
%struct.AVRational = type { i32, i32 }
%struct.AVChannelLayout = type { i32, i32, %union.anon.0, ptr }
%union.anon.0 = type { i64 }
%struct.AVPacket = type { ptr, i64, i64, ptr, i32, i32, i32, ptr, i32, i64, i64, ptr, ptr, %struct.AVRational }
%struct.AVFrame = type { [8 x ptr], [8 x i32], ptr, i32, i32, i32, i32, i32, %struct.AVRational, i64, i64, %struct.AVRational, i32, ptr, i32, i32, [8 x ptr], ptr, i32, ptr, i32, i32, i32, i32, i32, i32, i32, i64, ptr, i32, ptr, ptr, i64, i64, i64, i64, ptr, %struct.AVChannelLayout, i64 }

@.str.3 = private unnamed_addr constant [26 x i8] c"Insufficient input data.\0A\00", align 1

; Function Attrs: nounwind uwtable
define internal i32 @v408_decode_frame(ptr noundef %0, ptr noundef %1, ptr noundef %2, ptr noundef %3) #1 {
  %5 = alloca i32, align 4
  %6 = alloca ptr, align 8
  %7 = alloca ptr, align 8
  %8 = alloca ptr, align 8
  %9 = alloca ptr, align 8
  %10 = alloca ptr, align 8
  %11 = alloca ptr, align 8
  %12 = alloca ptr, align 8
  %13 = alloca ptr, align 8
  %14 = alloca ptr, align 8
  %15 = alloca i32, align 4
  %16 = alloca i32, align 4
  %17 = alloca i32, align 4
  %18 = alloca i32, align 4
  store ptr %0, ptr %6, align 8, !tbaa !4
  store ptr %1, ptr %7, align 8, !tbaa !29
  store ptr %2, ptr %8, align 8, !tbaa !31
  store ptr %3, ptr %9, align 8, !tbaa !32
  call void @llvm.lifetime.start.p0(i64 8, ptr %10) #4
  %19 = load ptr, ptr %9, align 8, !tbaa !32
  %20 = getelementptr inbounds nuw %struct.AVPacket, ptr %19, i32 0, i32 3
  %21 = load ptr, ptr %20, align 8, !tbaa !34
  store ptr %21, ptr %10, align 8, !tbaa !36
  call void @llvm.lifetime.start.p0(i64 8, ptr %11) #4
  call void @llvm.lifetime.start.p0(i64 8, ptr %12) #4
  call void @llvm.lifetime.start.p0(i64 8, ptr %13) #4
  call void @llvm.lifetime.start.p0(i64 8, ptr %14) #4
  call void @llvm.lifetime.start.p0(i64 4, ptr %15) #4
  call void @llvm.lifetime.start.p0(i64 4, ptr %16) #4
  call void @llvm.lifetime.start.p0(i64 4, ptr %17) #4
  %22 = load ptr, ptr %9, align 8, !tbaa !32
  %23 = getelementptr inbounds nuw %struct.AVPacket, ptr %22, i32 0, i32 4
  %24 = load i32, ptr %23, align 8, !tbaa !37
  %25 = load ptr, ptr %6, align 8, !tbaa !4
  %26 = getelementptr inbounds nuw %struct.AVCodecContext, ptr %25, i32 0, i32 19
  %27 = load i32, ptr %26, align 4, !tbaa !38
  %28 = mul nsw i32 4, %27
  %29 = load ptr, ptr %6, align 8, !tbaa !4
  %30 = getelementptr inbounds nuw %struct.AVCodecContext, ptr %29, i32 0, i32 18
  %31 = load i32, ptr %30, align 8, !tbaa !39
  %32 = mul nsw i32 %28, %31
  %33 = icmp slt i32 %24, %32
  br i1 %33, label %34, label %36

34:                                               ; preds = %4
  %35 = load ptr, ptr %6, align 8, !tbaa !4
  call void (ptr, i32, ptr, ...) @av_log(ptr noundef %35, i32 noundef 16, ptr noundef @.str.3)
  store i32 -22, ptr %5, align 4
  store i32 1, ptr %18, align 4
  br label %142

36:                                               ; preds = %4
  %37 = load ptr, ptr %6, align 8, !tbaa !4
  %38 = load ptr, ptr %7, align 8, !tbaa !29
  %39 = call i32 @ff_get_buffer(ptr noundef %37, ptr noundef %38, i32 noundef 0)
  store i32 %39, ptr %17, align 4, !tbaa !40
  %40 = icmp slt i32 %39, 0
  br i1 %40, label %41, label %43

41:                                               ; preds = %36
  %42 = load i32, ptr %17, align 4, !tbaa !40
  store i32 %42, ptr %5, align 4
  store i32 1, ptr %18, align 4
  br label %142

43:                                               ; preds = %36
  %44 = load ptr, ptr %7, align 8, !tbaa !29
  %45 = getelementptr inbounds nuw %struct.AVFrame, ptr %44, i32 0, i32 0
  %46 = getelementptr inbounds [8 x ptr], ptr %45, i64 0, i64 0
  %47 = load ptr, ptr %46, align 8, !tbaa !36
  store ptr %47, ptr %11, align 8, !tbaa !36
  %48 = load ptr, ptr %7, align 8, !tbaa !29
  %49 = getelementptr inbounds nuw %struct.AVFrame, ptr %48, i32 0, i32 0
  %50 = getelementptr inbounds [8 x ptr], ptr %49, i64 0, i64 1
  %51 = load ptr, ptr %50, align 8, !tbaa !36
  store ptr %51, ptr %12, align 8, !tbaa !36
  %52 = load ptr, ptr %7, align 8, !tbaa !29
  %53 = getelementptr inbounds nuw %struct.AVFrame, ptr %52, i32 0, i32 0
  %54 = getelementptr inbounds [8 x ptr], ptr %53, i64 0, i64 2
  %55 = load ptr, ptr %54, align 8, !tbaa !36
  store ptr %55, ptr %13, align 8, !tbaa !36
  %56 = load ptr, ptr %7, align 8, !tbaa !29
  %57 = getelementptr inbounds nuw %struct.AVFrame, ptr %56, i32 0, i32 0
  %58 = getelementptr inbounds [8 x ptr], ptr %57, i64 0, i64 3
  %59 = load ptr, ptr %58, align 8, !tbaa !36
  store ptr %59, ptr %14, align 8, !tbaa !36
  store i32 0, ptr %15, align 4, !tbaa !40
  br label %60

60:                                               ; preds = %134, %43
  %61 = load i32, ptr %15, align 4, !tbaa !40
  %62 = load ptr, ptr %6, align 8, !tbaa !4
  %63 = getelementptr inbounds nuw %struct.AVCodecContext, ptr %62, i32 0, i32 19
  %64 = load i32, ptr %63, align 4, !tbaa !38
  %65 = icmp slt i32 %61, %64
  br i1 %65, label %66, label %137

66:                                               ; preds = %60
  store i32 0, ptr %16, align 4, !tbaa !40
  br label %67

67:                                               ; preds = %102, %66
  %68 = load i32, ptr %16, align 4, !tbaa !40
  %69 = load ptr, ptr %6, align 8, !tbaa !4
  %70 = getelementptr inbounds nuw %struct.AVCodecContext, ptr %69, i32 0, i32 18
  %71 = load i32, ptr %70, align 8, !tbaa !39
  %72 = icmp slt i32 %68, %71
  br i1 %72, label %73, label %105

73:                                               ; preds = %67
  %74 = load ptr, ptr %10, align 8, !tbaa !36
  %75 = getelementptr inbounds nuw i8, ptr %74, i32 1
  store ptr %75, ptr %10, align 8, !tbaa !36
  %76 = load i8, ptr %74, align 1, !tbaa !41
  %77 = load ptr, ptr %12, align 8, !tbaa !36
  %78 = load i32, ptr %16, align 4, !tbaa !40
  %79 = sext i32 %78 to i64
  %80 = getelementptr inbounds i8, ptr %77, i64 %79
  store i8 %76, ptr %80, align 1, !tbaa !41
  %81 = load ptr, ptr %10, align 8, !tbaa !36
  %82 = getelementptr inbounds nuw i8, ptr %81, i32 1
  store ptr %82, ptr %10, align 8, !tbaa !36
  %83 = load i8, ptr %81, align 1, !tbaa !41
  %84 = load ptr, ptr %11, align 8, !tbaa !36
  %85 = load i32, ptr %16, align 4, !tbaa !40
  %86 = sext i32 %85 to i64
  %87 = getelementptr inbounds i8, ptr %84, i64 %86
  store i8 %83, ptr %87, align 1, !tbaa !41
  %88 = load ptr, ptr %10, align 8, !tbaa !36
  %89 = getelementptr inbounds nuw i8, ptr %88, i32 1
  store ptr %89, ptr %10, align 8, !tbaa !36
  %90 = load i8, ptr %88, align 1, !tbaa !41
  %91 = load ptr, ptr %13, align 8, !tbaa !36
  %92 = load i32, ptr %16, align 4, !tbaa !40
  %93 = sext i32 %92 to i64
  %94 = getelementptr inbounds i8, ptr %91, i64 %93
  store i8 %90, ptr %94, align 1, !tbaa !41
  %95 = load ptr, ptr %10, align 8, !tbaa !36
  %96 = getelementptr inbounds nuw i8, ptr %95, i32 1
  store ptr %96, ptr %10, align 8, !tbaa !36
  %97 = load i8, ptr %95, align 1, !tbaa !41
  %98 = load ptr, ptr %14, align 8, !tbaa !36
  %99 = load i32, ptr %16, align 4, !tbaa !40
  %100 = sext i32 %99 to i64
  %101 = getelementptr inbounds i8, ptr %98, i64 %100
  store i8 %97, ptr %101, align 1, !tbaa !41
  br label %102

102:                                              ; preds = %73
  %103 = load i32, ptr %16, align 4, !tbaa !40
  %104 = add nsw i32 %103, 1
  store i32 %104, ptr %16, align 4, !tbaa !40
  br label %67, !llvm.loop !42

105:                                              ; preds = %67
  %106 = load ptr, ptr %7, align 8, !tbaa !29
  %107 = getelementptr inbounds nuw %struct.AVFrame, ptr %106, i32 0, i32 1
  %108 = getelementptr inbounds [8 x i32], ptr %107, i64 0, i64 0
  %109 = load i32, ptr %108, align 8, !tbaa !40
  %110 = load ptr, ptr %11, align 8, !tbaa !36
  %111 = sext i32 %109 to i64
  %112 = getelementptr inbounds i8, ptr %110, i64 %111
  store ptr %112, ptr %11, align 8, !tbaa !36
  %113 = load ptr, ptr %7, align 8, !tbaa !29
  %114 = getelementptr inbounds nuw %struct.AVFrame, ptr %113, i32 0, i32 1
  %115 = getelementptr inbounds [8 x i32], ptr %114, i64 0, i64 1
  %116 = load i32, ptr %115, align 4, !tbaa !40
  %117 = load ptr, ptr %12, align 8, !tbaa !36
  %118 = sext i32 %116 to i64
  %119 = getelementptr inbounds i8, ptr %117, i64 %118
  store ptr %119, ptr %12, align 8, !tbaa !36
  %120 = load ptr, ptr %7, align 8, !tbaa !29
  %121 = getelementptr inbounds nuw %struct.AVFrame, ptr %120, i32 0, i32 1
  %122 = getelementptr inbounds [8 x i32], ptr %121, i64 0, i64 2
  %123 = load i32, ptr %122, align 8, !tbaa !40
  %124 = load ptr, ptr %13, align 8, !tbaa !36
  %125 = sext i32 %123 to i64
  %126 = getelementptr inbounds i8, ptr %124, i64 %125
  store ptr %126, ptr %13, align 8, !tbaa !36
  %127 = load ptr, ptr %7, align 8, !tbaa !29
  %128 = getelementptr inbounds nuw %struct.AVFrame, ptr %127, i32 0, i32 1
  %129 = getelementptr inbounds [8 x i32], ptr %128, i64 0, i64 3
  %130 = load i32, ptr %129, align 4, !tbaa !40
  %131 = load ptr, ptr %14, align 8, !tbaa !36
  %132 = sext i32 %130 to i64
  %133 = getelementptr inbounds i8, ptr %131, i64 %132
  store ptr %133, ptr %14, align 8, !tbaa !36
  br label %134

134:                                              ; preds = %105
  %135 = load i32, ptr %15, align 4, !tbaa !40
  %136 = add nsw i32 %135, 1
  store i32 %136, ptr %15, align 4, !tbaa !40
  br label %60, !llvm.loop !44

137:                                              ; preds = %60
  %138 = load ptr, ptr %8, align 8, !tbaa !31
  store i32 1, ptr %138, align 4, !tbaa !40
  %139 = load ptr, ptr %9, align 8, !tbaa !32
  %140 = getelementptr inbounds nuw %struct.AVPacket, ptr %139, i32 0, i32 4
  %141 = load i32, ptr %140, align 8, !tbaa !37
  store i32 %141, ptr %5, align 4
  store i32 1, ptr %18, align 4
  br label %142

142:                                              ; preds = %137, %41, %34
  call void @llvm.lifetime.end.p0(i64 4, ptr %17) #4
  call void @llvm.lifetime.end.p0(i64 4, ptr %16) #4
  call void @llvm.lifetime.end.p0(i64 4, ptr %15) #4
  call void @llvm.lifetime.end.p0(i64 8, ptr %14) #4
  call void @llvm.lifetime.end.p0(i64 8, ptr %13) #4
  call void @llvm.lifetime.end.p0(i64 8, ptr %12) #4
  call void @llvm.lifetime.end.p0(i64 8, ptr %11) #4
  call void @llvm.lifetime.end.p0(i64 8, ptr %10) #4
  %143 = load i32, ptr %5, align 4
  ret i32 %143
}