; Function Attrs: nounwind uwtable
define internal i32 @v408_decode_frame(ptr noundef %0, ptr noundef %1, ptr noundef writeonly captures(none) %2, ptr noundef readonly captures(none) %3) #1 {
  %5 = getelementptr inbounds nuw i8, ptr %3, i64 24
  %6 = load ptr, ptr %5, align 8, !tbaa !27
  %7 = getelementptr inbounds nuw i8, ptr %3, i64 32
  %8 = load i32, ptr %7, align 8, !tbaa !29
  %9 = getelementptr inbounds nuw i8, ptr %0, i64 116
  %10 = load i32, ptr %9, align 4, !tbaa !30
  %11 = shl nsw i32 %10, 2
  %12 = getelementptr inbounds nuw i8, ptr %0, i64 112
  %13 = load i32, ptr %12, align 8, !tbaa !31
  %14 = mul nsw i32 %11, %13
  %15 = icmp slt i32 %8, %14
  br i1 %15, label %16, label %17

16:                                               ; preds = %4
  tail call void (ptr, i32, ptr, ...) @av_log(ptr noundef nonnull %0, i32 noundef 16, ptr noundef nonnull @.str.3) #3
  br label %71

17:                                               ; preds = %4
  %18 = tail call i32 @ff_get_buffer(ptr noundef nonnull %0, ptr noundef %1, i32 noundef 0) #3
  %19 = icmp slt i32 %18, 0
  br i1 %19, label %71, label %20

20:                                               ; preds = %17
  %21 = load i32, ptr %9, align 4, !tbaa !30
  %22 = icmp sgt i32 %21, 0
  br i1 %22, label %.preheader.lr.ph, label %._crit_edge56

.preheader.lr.ph:                                 ; preds = %20
  %23 = getelementptr inbounds nuw i8, ptr %1, i64 64
  %24 = getelementptr inbounds nuw i8, ptr %1, i64 68
  %25 = getelementptr inbounds nuw i8, ptr %1, i64 72
  %26 = getelementptr inbounds nuw i8, ptr %1, i64 76
  %27 = load i32, ptr %12, align 8, !tbaa !31
  %28 = icmp sgt i32 %27, 0
  br i1 %28, label %.preheader.preheader, label %._crit_edge56

.preheader.preheader:                             ; preds = %.preheader.lr.ph
  %29 = getelementptr inbounds nuw i8, ptr %1, i64 24
  %30 = load ptr, ptr %29, align 8, !tbaa !32
  %31 = getelementptr inbounds nuw i8, ptr %1, i64 16
  %32 = load ptr, ptr %31, align 8, !tbaa !32
  %33 = getelementptr inbounds nuw i8, ptr %1, i64 8
  %34 = load ptr, ptr %33, align 8, !tbaa !32
  %35 = load ptr, ptr %1, align 8, !tbaa !32
  br label %.preheader

.preheader:                                       ; preds = %.preheader.preheader, %._crit_edge
  %36 = phi i32 [ %54, %._crit_edge ], [ %21, %.preheader.preheader ]
  %37 = phi i32 [ %55, %._crit_edge ], [ %27, %.preheader.preheader ]
  %.04155 = phi i32 [ %68, %._crit_edge ], [ 0, %.preheader.preheader ]
  %.04254 = phi ptr [ %67, %._crit_edge ], [ %30, %.preheader.preheader ]
  %.04353 = phi ptr [ %64, %._crit_edge ], [ %32, %.preheader.preheader ]
  %.04452 = phi ptr [ %61, %._crit_edge ], [ %34, %.preheader.preheader ]
  %.04551 = phi ptr [ %58, %._crit_edge ], [ %35, %.preheader.preheader ]
  %.04650 = phi ptr [ %.1.lcssa, %._crit_edge ], [ %6, %.preheader.preheader ]
  %38 = icmp sgt i32 %37, 0
  br i1 %38, label %.lr.ph, label %._crit_edge

.lr.ph:                                           ; preds = %.preheader, %.lr.ph
  %indvars.iv = phi i64 [ %indvars.iv.next, %.lr.ph ], [ 0, %.preheader ]
  %.148 = phi ptr [ %48, %.lr.ph ], [ %.04650, %.preheader ]
  %39 = getelementptr inbounds nuw i8, ptr %.148, i64 1
  %40 = load i8, ptr %.148, align 1, !tbaa !33
  %41 = getelementptr inbounds nuw i8, ptr %.04452, i64 %indvars.iv
  store i8 %40, ptr %41, align 1, !tbaa !33
  %42 = getelementptr inbounds nuw i8, ptr %.148, i64 2
  %43 = load i8, ptr %39, align 1, !tbaa !33
  %44 = getelementptr inbounds nuw i8, ptr %.04551, i64 %indvars.iv
  store i8 %43, ptr %44, align 1, !tbaa !33
  %45 = getelementptr inbounds nuw i8, ptr %.148, i64 3
  %46 = load i8, ptr %42, align 1, !tbaa !33
  %47 = getelementptr inbounds nuw i8, ptr %.04353, i64 %indvars.iv
  store i8 %46, ptr %47, align 1, !tbaa !33
  %48 = getelementptr inbounds nuw i8, ptr %.148, i64 4
  %49 = load i8, ptr %45, align 1, !tbaa !33
  %50 = getelementptr inbounds nuw i8, ptr %.04254, i64 %indvars.iv
  store i8 %49, ptr %50, align 1, !tbaa !33
  %indvars.iv.next = add nuw nsw i64 %indvars.iv, 1
  %51 = load i32, ptr %12, align 8, !tbaa !31
  %52 = sext i32 %51 to i64
  %53 = icmp slt i64 %indvars.iv.next, %52
  br i1 %53, label %.lr.ph, label %._crit_edge.loopexit, !llvm.loop !34

._crit_edge.loopexit:                             ; preds = %.lr.ph
  %.pre = load i32, ptr %9, align 4, !tbaa !30
  br label %._crit_edge

._crit_edge:                                      ; preds = %._crit_edge.loopexit, %.preheader
  %54 = phi i32 [ %36, %.preheader ], [ %.pre, %._crit_edge.loopexit ]
  %55 = phi i32 [ %37, %.preheader ], [ %51, %._crit_edge.loopexit ]
  %.1.lcssa = phi ptr [ %.04650, %.preheader ], [ %48, %._crit_edge.loopexit ]
  %56 = load i32, ptr %23, align 8, !tbaa !36
  %57 = sext i32 %56 to i64
  %58 = getelementptr inbounds i8, ptr %.04551, i64 %57
  %59 = load i32, ptr %24, align 4, !tbaa !36
  %60 = sext i32 %59 to i64
  %61 = getelementptr inbounds i8, ptr %.04452, i64 %60
  %62 = load i32, ptr %25, align 8, !tbaa !36
  %63 = sext i32 %62 to i64
  %64 = getelementptr inbounds i8, ptr %.04353, i64 %63
  %65 = load i32, ptr %26, align 4, !tbaa !36
  %66 = sext i32 %65 to i64
  %67 = getelementptr inbounds i8, ptr %.04254, i64 %66
  %68 = add nuw nsw i32 %.04155, 1
  %69 = icmp slt i32 %68, %54
  br i1 %69, label %.preheader, label %._crit_edge56, !llvm.loop !37

._crit_edge56:                                    ; preds = %._crit_edge, %.preheader.lr.ph, %20
  store i32 1, ptr %2, align 4, !tbaa !36
  %70 = load i32, ptr %7, align 8, !tbaa !29
  br label %71

71:                                               ; preds = %17, %._crit_edge56, %16
  %.0 = phi i32 [ -22, %16 ], [ %70, %._crit_edge56 ], [ %18, %17 ]
  ret i32 %.0
}